; Function Attrs: uwtable
define void @_ZThn16_N19QualityMapperPlugin7endEditER9MeshModelP6GLAreaP26MLSceneGLSharedDataContext(ptr nocapture noundef %0, ptr nocapture noundef nonnull readnone align 8 dereferenceable(1288) %1, ptr nocapture noundef readnone %2, ptr nocapture noundef readnone %3) unnamed_addr #11 align 2 {
  %5 = getelementptr inbounds i8, ptr %0, i64 16
  %6 = load ptr, ptr %5, align 8
  %.not.i = icmp eq ptr %6, null
  br i1 %.not.i, label %_ZN19QualityMapperPlugin7endEditER9MeshModelP6GLAreaP26MLSceneGLSharedDataContext.exit, label %7

7:                                                ; preds = %4
  %8 = tail call noundef zeroext i1 @_ZN7QObject10disconnectEPKS_PKcS1_S3_(ptr noundef nonnull %6, ptr noundef null, ptr noundef null, ptr noundef null)
  %9 = load ptr, ptr %5, align 8
  %10 = icmp eq ptr %9, null
  br i1 %10, label %15, label %11

11:                                               ; preds = %7
  %12 = load ptr, ptr %9, align 8
  %13 = getelementptr inbounds i8, ptr %12, i64 32
  %14 = load ptr, ptr %13, align 8
  tail call void %14(ptr noundef nonnull align 8 dereferenceable(824) %9) #15
  br label %15

15:                                               ; preds = %11, %7
  store ptr null, ptr %5, align 8
  br label %_ZN19QualityMapperPlugin7endEditER9MeshModelP6GLAreaP26MLSceneGLSharedDataContext.exit

_ZN19QualityMapperPlugin7endEditER9MeshModelP6GLAreaP26MLSceneGLSharedDataContext.exit: ; preds = %4, %15
  ret void
}